; Function Attrs: nounwind uwtable
define range(i32 -1, 1) i32 @H5F_shared_vector_read(ptr nocapture noundef readonly %0, i32 noundef %1, ptr noundef %2, ptr noundef %3, ptr noundef %4, ptr noundef %5) local_unnamed_addr #0 {
  %7 = load ptr, ptr %0, align 8
  %8 = tail call i32 @H5FD_read_vector(ptr noundef %7, i32 noundef %1, ptr noundef %2, ptr noundef %3, ptr noundef %4, ptr noundef %5) #2
  %9 = icmp slt i32 %8, 0
  br i1 %9, label %10, label %14

10:                                               ; preds = %6
  %11 = load i64, ptr @H5E_IO_g, align 8
  %12 = load i64, ptr @H5E_READERROR_g, align 8
  %13 = tail call i32 (ptr, ptr, i32, i64, i64, ptr, ...) @H5E_printf_stack(ptr noundef nonnull @.str, ptr noundef nonnull @__func__.H5F_shared_vector_read, i32 noundef 344, i64 noundef %11, i64 noundef %12, ptr noundef nonnull @.str.6) #2
  br label %14

14:                                               ; preds = %6, %10
  %.0 = phi i32 [ -1, %10 ], [ 0, %6 ]
  ret i32 %.0
}